target datalayout = "e-m:e-p270:32:32-p271:32:32-p272:64:64-i64:64-i128:128-f80:128-n8:16:32:64-S128"
target triple = "x86_64-pc-linux-gnu"

%struct.st_str_end_key = type { ptr, ptr }

; Function Attrs: nounwind uwtable
define internal i32 @str_end_cmp(ptr noundef %0, ptr noundef %1) #0 {
  %3 = alloca i32, align 4
  %4 = alloca ptr, align 8
  %5 = alloca ptr, align 8
  %6 = alloca ptr, align 8
  %7 = alloca ptr, align 8
  %8 = alloca i32, align 4
  %9 = alloca i32, align 4
  store ptr %0, ptr %4, align 8, !tbaa !9
  store ptr %1, ptr %5, align 8, !tbaa !9
  call void @llvm.lifetime.start.p0(i64 8, ptr %6) #8
  call void @llvm.lifetime.start.p0(i64 8, ptr %7) #8
  call void @llvm.lifetime.start.p0(i64 4, ptr %8) #8
  %10 = load ptr, ptr %4, align 8, !tbaa !9
  %11 = getelementptr inbounds nuw %struct.st_str_end_key, ptr %10, i32 0, i32 1
  %12 = load ptr, ptr %11, align 8, !tbaa !15
  %13 = load ptr, ptr %4, align 8, !tbaa !9
  %14 = getelementptr inbounds nuw %struct.st_str_end_key, ptr %13, i32 0, i32 0
  %15 = load ptr, ptr %14, align 8, !tbaa !17
  %16 = ptrtoint ptr %12 to i64
  %17 = ptrtoint ptr %15 to i64
  %18 = sub i64 %16, %17
  %19 = load ptr, ptr %5, align 8, !tbaa !9
  %20 = getelementptr inbounds nuw %struct.st_str_end_key, ptr %19, i32 0, i32 1
  %21 = load ptr, ptr %20, align 8, !tbaa !15
  %22 = load ptr, ptr %5, align 8, !tbaa !9
  %23 = getelementptr inbounds nuw %struct.st_str_end_key, ptr %22, i32 0, i32 0
  %24 = load ptr, ptr %23, align 8, !tbaa !17
  %25 = ptrtoint ptr %21 to i64
  %26 = ptrtoint ptr %24 to i64
  %27 = sub i64 %25, %26
  %28 = icmp ne i64 %18, %27
  br i1 %28, label %29, label %30

29:                                               ; preds = %2
  store i32 1, ptr %3, align 4
  store i32 1, ptr %9, align 4
  br label %61

30:                                               ; preds = %2
  %31 = load ptr, ptr %4, align 8, !tbaa !9
  %32 = getelementptr inbounds nuw %struct.st_str_end_key, ptr %31, i32 0, i32 0
  %33 = load ptr, ptr %32, align 8, !tbaa !17
  store ptr %33, ptr %6, align 8, !tbaa !4
  %34 = load ptr, ptr %5, align 8, !tbaa !9
  %35 = getelementptr inbounds nuw %struct.st_str_end_key, ptr %34, i32 0, i32 0
  %36 = load ptr, ptr %35, align 8, !tbaa !17
  store ptr %36, ptr %7, align 8, !tbaa !4
  br label %37

37:                                               ; preds = %55, %30
  %38 = load ptr, ptr %6, align 8, !tbaa !4
  %39 = load ptr, ptr %4, align 8, !tbaa !9
  %40 = getelementptr inbounds nuw %struct.st_str_end_key, ptr %39, i32 0, i32 1
  %41 = load ptr, ptr %40, align 8, !tbaa !15
  %42 = icmp ult ptr %38, %41
  br i1 %42, label %43, label %60

43:                                               ; preds = %37
  %44 = load ptr, ptr %6, align 8, !tbaa !4
  %45 = load i8, ptr %44, align 1, !tbaa !12
  %46 = zext i8 %45 to i32
  %47 = load ptr, ptr %7, align 8, !tbaa !4
  %48 = load i8, ptr %47, align 1, !tbaa !12
  %49 = zext i8 %48 to i32
  %50 = sub nsw i32 %46, %49
  store i32 %50, ptr %8, align 4, !tbaa !10
  %51 = load i32, ptr %8, align 4, !tbaa !10
  %52 = icmp ne i32 %51, 0
  br i1 %52, label %53, label %55

53:                                               ; preds = %43
  %54 = load i32, ptr %8, align 4, !tbaa !10
  store i32 %54, ptr %3, align 4
  store i32 1, ptr %9, align 4
  br label %61

55:                                               ; preds = %43
  %56 = load ptr, ptr %6, align 8, !tbaa !4
  %57 = getelementptr inbounds nuw i8, ptr %56, i32 1
  store ptr %57, ptr %6, align 8, !tbaa !4
  %58 = load ptr, ptr %7, align 8, !tbaa !4
  %59 = getelementptr inbounds nuw i8, ptr %58, i32 1
  store ptr %59, ptr %7, align 8, !tbaa !4
  br label %37, !llvm.loop !18

60:                                               ; preds = %37
  store i32 0, ptr %3, align 4
  store i32 1, ptr %9, align 4
  br label %61

61:                                               ; preds = %60, %53, %29
  call void @llvm.lifetime.end.p0(i64 4, ptr %8) #8
  call void @llvm.lifetime.end.p0(i64 8, ptr %7) #8
  call void @llvm.lifetime.end.p0(i64 8, ptr %6) #8
  %62 = load i32, ptr %3, align 4
  ret i32 %62
}