; Function Attrs: nofree norecurse nosync nounwind memory(read, inaccessiblemem: none) uwtable
define internal range(i32 -255, 256) i32 @str_end_cmp(ptr noundef readonly captures(none) %0, ptr noundef readonly captures(none) %1) #8 {
  %3 = getelementptr inbounds nuw i8, ptr %0, i64 8
  %4 = load ptr, ptr %3, align 8, !tbaa !13
  %5 = load ptr, ptr %0, align 8, !tbaa !16
  %6 = ptrtoint ptr %4 to i64
  %7 = ptrtoint ptr %5 to i64
  %8 = sub i64 %6, %7
  %9 = getelementptr inbounds nuw i8, ptr %1, i64 8
  %10 = load ptr, ptr %9, align 8, !tbaa !13
  %11 = load ptr, ptr %1, align 8, !tbaa !16
  %12 = ptrtoint ptr %10 to i64
  %13 = ptrtoint ptr %11 to i64
  %14 = sub i64 %12, %13
  %.not = icmp eq i64 %8, %14
  br i1 %.not, label %.preheader, label %.loopexit

.preheader:                                       ; preds = %2
  %15 = icmp ult ptr %5, %4
  br i1 %15, label %.lr.ph, label %.loopexit

.lr.ph:                                           ; preds = %.preheader, %21
  %.01419 = phi ptr [ %23, %21 ], [ %11, %.preheader ]
  %.01518 = phi ptr [ %22, %21 ], [ %5, %.preheader ]
  %16 = load i8, ptr %.01518, align 1, !tbaa !10
  %17 = zext i8 %16 to i32
  %18 = load i8, ptr %.01419, align 1, !tbaa !10
  %19 = zext i8 %18 to i32
  %20 = sub nsw i32 %17, %19
  %.not17 = icmp eq i32 %20, 0
  br i1 %.not17, label %21, label %.loopexit

21:                                               ; preds = %.lr.ph
  %22 = getelementptr inbounds nuw i8, ptr %.01518, i64 1
  %23 = getelementptr inbounds nuw i8, ptr %.01419, i64 1
  %exitcond.not = icmp eq ptr %22, %4
  br i1 %exitcond.not, label %.loopexit, label %.lr.ph, !llvm.loop !17

.loopexit:                                        ; preds = %.lr.ph, %21, %.preheader, %2
  %.0 = phi i32 [ 1, %2 ], [ 0, %.preheader ], [ %20, %.lr.ph ], [ 0, %21 ]
  ret i32 %.0
}